(dp0
S'MA1407.1'
p1
(lp2
(lp3
(lp4
F0.406406
aF0.437562
aF0.016983
aF0.016983
aF0.949051
aF0.016983
aF0.016983
aF0.016983
aF0.656657
aF0.312625
aa(lp5
F0.031031
aF0.270729
aF0.016983
aF0.016983
aF0.016983
aF0.949051
aF0.016983
aF0.016983
aF0.156156
aF0.312625
aa(lp6
F0.281281
aF0.270729
aF0.016983
aF0.949051
aF0.016983
aF0.016983
aF0.949051
aF0.016983
aF0.031031
aF0.062124
aa(lp7
F0.281281
aF0.020979
aF0.949051
aF0.016983
aF0.016983
aF0.016983
aF0.016983
aF0.949051
aF0.156156
aF0.312625
aaaF5.351462
aI10
aS'bZIP14'
p8
aS'http://jaspar.genereg.net/matrix/MA1407.1'
p9
as.